; Function Attrs: nounwind uwtable
define internal ptr @_io_FileIO_fileno(ptr noundef readonly captures(none) %0, ptr readnone captures(none) %1) #1 {
  %3 = getelementptr i8, ptr %0, i64 16
  %.val = load i32, ptr %3, align 8, !tbaa !4
  %4 = icmp slt i32 %.val, 0
  br i1 %4, label %5, label %7

5:                                                ; preds = %2
  %6 = load ptr, ptr @PyExc_ValueError, align 8, !tbaa !21
  tail call void @PyErr_SetString(ptr noundef %6, ptr noundef nonnull @.str.35) #10
  br label %_io_FileIO_fileno_impl.exit

7:                                                ; preds = %2
  %8 = zext nneg i32 %.val to i64
  %9 = tail call ptr @PyLong_FromLong(i64 noundef %8) #10
  br label %_io_FileIO_fileno_impl.exit

_io_FileIO_fileno_impl.exit:                      ; preds = %5, %7
  %.0.i = phi ptr [ null, %5 ], [ %9, %7 ]
  ret ptr %.0.i
}